; Function Attrs: mustprogress uwtable
define hidden noundef i32 @_ZN4cvc58internal6theory9datatypes5utils8isTesterENS0_12NodeTemplateILb1EEE(ptr noundef %0) local_unnamed_addr #3 personality ptr @__gxx_personality_v0 {
  %2 = alloca %"class.cvc5::internal::NodeTemplate", align 8
  %3 = load ptr, ptr %0, align 8, !tbaa !11
  %4 = getelementptr inbounds nuw i8, ptr %3, i64 8
  %5 = load i64, ptr %4, align 8
  %6 = and i64 %5, 1023
  %7 = icmp eq i64 %6, 226
  br i1 %7, label %8, label %_ZN4cvc58internal12NodeTemplateILb1EED2Ev.exit

8:                                                ; preds = %1
  call void @_ZNK4cvc58internal12NodeTemplateILb1EE11getOperatorEv(ptr dead_on_unwind nonnull writable sret(%"class.cvc5::internal::NodeTemplate") align 8 %2, ptr noundef nonnull align 8 dereferenceable(8) %0)
  %9 = invoke noundef i64 @_ZN4cvc58internal6theory9datatypes5utils7indexOfENS0_12NodeTemplateILb1EEE(ptr noundef nonnull %2)
          to label %10 unwind label %25

10:                                               ; preds = %8
  %11 = trunc i64 %9 to i32
  %12 = load ptr, ptr %2, align 8, !tbaa !11
  %13 = load i64, ptr %12, align 8
  %14 = and i64 %13, 1152920405095219200
  %.not.i.i = icmp eq i64 %14, 1152920405095219200
  br i1 %.not.i.i, label %_ZN4cvc58internal12NodeTemplateILb1EED2Ev.exit, label %15, !prof !10

15:                                               ; preds = %10
  %16 = add i64 %13, 1152920405095219200
  %17 = and i64 %16, 1152920405095219200
  %18 = and i64 %13, -1152920405095219201
  %19 = or disjoint i64 %17, %18
  store i64 %19, ptr %12, align 8
  %20 = icmp eq i64 %17, 0
  br i1 %20, label %21, label %_ZN4cvc58internal12NodeTemplateILb1EED2Ev.exit, !prof !10

21:                                               ; preds = %15
  invoke void @_ZN4cvc58internal4expr9NodeValue15markForDeletionEv(ptr noundef nonnull align 8 dereferenceable(24) %12)
          to label %_ZN4cvc58internal12NodeTemplateILb1EED2Ev.exit unwind label %22

22:                                               ; preds = %21
  %23 = landingpad { ptr, i32 }
          catch ptr null
  %24 = extractvalue { ptr, i32 } %23, 0
  call void @__clang_call_terminate(ptr %24) #21
  unreachable

25:                                               ; preds = %8
  %26 = landingpad { ptr, i32 }
          cleanup
  call void @_ZN4cvc58internal12NodeTemplateILb1EED2Ev(ptr noundef nonnull align 8 dereferenceable(8) %2) #22
  resume { ptr, i32 } %26

_ZN4cvc58internal12NodeTemplateILb1EED2Ev.exit:   ; preds = %21, %15, %10, %1
  %.0 = phi i32 [ -1, %1 ], [ %11, %10 ], [ %11, %15 ], [ %11, %21 ]
  ret i32 %.0
}